; ModuleID = '30/2827.c'
source_filename = "30/2827.c"
target datalayout = "e-m:e-p270:32:32-p271:32:32-p272:64:64-i64:64-f80:128-n8:16:32:64-S128"
target triple = "x86_64-pc-linux-gnu"

@.str = private unnamed_addr constant [3 x i8] c"%d\00", align 1

; Function Attrs: noinline nounwind uwtable
define dso_local i32 @main() #0 {
  %1 = alloca i32, align 4
  %2 = alloca [100 x i32], align 16
  %3 = alloca i32, align 4
  %4 = alloca i32, align 4
  %5 = alloca i32, align 4
  %6 = alloca i32, align 4
  store i32 0, i32* %1, align 4
  %7 = call i32 (i8*, ...) @__isoc99_scanf(i8* getelementptr inbounds ([3 x i8], [3 x i8]* @.str, i64 0, i64 0), i32* %5)
  store i32 0, i32* %3, align 4
  store i32 0, i32* %6, align 4
  br label %8

8:                                                ; preds = %17, %0
  %9 = load i32, i32* %6, align 4
  %10 = icmp slt i32 %9, 100
  br i1 %10, label %11, label %20

11:                                               ; preds = %8
  %12 = load i32, i32* %6, align 4
  %13 = add nsw i32 %12, 1
  %14 = load i32, i32* %6, align 4
  %15 = sext i32 %14 to i64
  %16 = getelementptr inbounds [100 x i32], [100 x i32]* %2, i64 0, i64 %15
  store i32 %13, i32* %16, align 4
  br label %17

17:                                               ; preds = %11
  %18 = load i32, i32* %6, align 4
  %19 = add nsw i32 %18, 1
  store i32 %19, i32* %6, align 4
  br label %8

20:                                               ; preds = %8
  store i32 1, i32* %6, align 4
  br label %21

21:                                               ; preds = %68, %20
  %22 = load i32, i32* %6, align 4
  %23 = load i32, i32* %5, align 4
  %24 = icmp sle i32 %22, %23
  br i1 %24, label %25, label %71

25:                                               ; preds = %21
  %26 = load i32, i32* %6, align 4
  %27 = sub nsw i32 %26, 1
  %28 = sext i32 %27 to i64
  %29 = getelementptr inbounds [100 x i32], [100 x i32]* %2, i64 0, i64 %28
  %30 = load i32, i32* %29, align 4
  %31 = srem i32 %30, 7
  %32 = icmp eq i32 %31, 0
  br i1 %32, label %52, label %33

33:                                               ; preds = %25
  %34 = load i32, i32* %6, align 4
  %35 = sub nsw i32 %34, 1
  %36 = sext i32 %35 to i64
  %37 = getelementptr inbounds [100 x i32], [100 x i32]* %2, i64 0, i64 %36
  %38 = load i32, i32* %37, align 4
  %39 = sdiv i32 %38, 10
  %40 = sitofp i32 %39 to double
  %41 = call double @llvm.floor.f64(double %40)
  %42 = fptosi double %41 to i32
  %43 = icmp eq i32 %42, 7
  br i1 %43, label %52, label %44

44:                                               ; preds = %33
  %45 = load i32, i32* %6, align 4
  %46 = sub nsw i32 %45, 1
  %47 = sext i32 %46 to i64
  %48 = getelementptr inbounds [100 x i32], [100 x i32]* %2, i64 0, i64 %47
  %49 = load i32, i32* %48, align 4
  %50 = srem i32 %49, 10
  %51 = icmp eq i32 %50, 7
  br i1 %51, label %52, label %53

52:                                               ; preds = %44, %33, %25
  store i32 0, i32* %4, align 4
  br label %67

53:                                               ; preds = %44
  %54 = load i32, i32* %6, align 4
  %55 = sub nsw i32 %54, 1
  %56 = sext i32 %55 to i64
  %57 = getelementptr inbounds [100 x i32], [100 x i32]* %2, i64 0, i64 %56
  %58 = load i32, i32* %57, align 4
  %59 = load i32, i32* %6, align 4
  %60 = sub nsw i32 %59, 1
  %61 = sext i32 %60 to i64
  %62 = getelementptr inbounds [100 x i32], [100 x i32]* %2, i64 0, i64 %61
  %63 = load i32, i32* %62, align 4
  %64 = mul nsw i32 %58, %63
  %65 = load i32, i32* %3, align 4
  %66 = add nsw i32 %65, %64
  store i32 %66, i32* %3, align 4
  br label %67

67:                                               ; preds = %53, %52
  br label %68

68:                                               ; preds = %67
  %69 = load i32, i32* %6, align 4
  %70 = add nsw i32 %69, 1
  store i32 %70, i32* %6, align 4
  br label %21

71:                                               ; preds = %21
  %72 = load i32, i32* %3, align 4
  %73 = call i32 (i8*, ...) @printf(i8* getelementptr inbounds ([3 x i8], [3 x i8]* @.str, i64 0, i64 0), i32 %72)
  ret i32 0
}

declare dso_local i32 @__isoc99_scanf(i8*, ...) #1

; Function Attrs: nounwind readnone speculatable willreturn
declare double @llvm.floor.f64(double) #2

declare dso_local i32 @printf(i8*, ...) #1


!llvm.module.flags = !{!0}
!llvm.ident = !{!1}

!0 = !{i32 1, !"wchar_size", i32 4}
!1 = !{!"clang version 10.0.0-4ubuntu1 "}
